; Function Attrs: mustprogress nounwind uwtable
define dso_local void @_ZN24btConstraintSolverPoolMtD0Ev(ptr noundef nonnull align 8 dereferenceable(44) initializes((0, 8)) %0) unnamed_addr #4 align 2 personality ptr @__gxx_personality_v0 {
  store ptr getelementptr inbounds nuw inrange(-16, 56) (i8, ptr @_ZTV24btConstraintSolverPoolMt, i64 16), ptr %0, align 8, !tbaa !34
  %2 = getelementptr inbounds nuw i8, ptr %0, i64 12
  %3 = load i32, ptr %2, align 4, !tbaa !13
  %4 = icmp sgt i32 %3, 0
  br i1 %4, label %.lr.ph.i, label %._crit_edge.i

.lr.ph.i:                                         ; preds = %1
  %5 = getelementptr inbounds nuw i8, ptr %0, i64 24
  br label %16

._crit_edge.i:                                    ; preds = %26, %1
  %6 = getelementptr inbounds nuw i8, ptr %0, i64 24
  %7 = load ptr, ptr %6, align 8, !tbaa !4
  %.not.i.i.i.i = icmp eq ptr %7, null
  br i1 %.not.i.i.i.i, label %_ZN24btConstraintSolverPoolMtD2Ev.exit, label %8

8:                                                ; preds = %._crit_edge.i
  %9 = getelementptr inbounds nuw i8, ptr %0, i64 32
  %10 = load i8, ptr %9, align 8, !tbaa !26, !range !27, !noundef !28
  %11 = trunc nuw i8 %10 to i1
  br i1 %11, label %12, label %_ZN24btConstraintSolverPoolMtD2Ev.exit

12:                                               ; preds = %8
  invoke void @_Z21btAlignedFreeInternalPv(ptr noundef nonnull %7)
          to label %_ZN24btConstraintSolverPoolMtD2Ev.exit unwind label %13

13:                                               ; preds = %12
  %14 = landingpad { ptr, i32 }
          catch ptr null
  %15 = extractvalue { ptr, i32 } %14, 0
  tail call void @__clang_call_terminate(ptr %15) #12
  unreachable

16:                                               ; preds = %26, %.lr.ph.i
  %17 = phi i32 [ %3, %.lr.ph.i ], [ %27, %26 ]
  %indvars.iv.i = phi i64 [ 0, %.lr.ph.i ], [ %indvars.iv.next.i, %26 ]
  %18 = load ptr, ptr %5, align 8, !tbaa !4
  %19 = getelementptr inbounds nuw %"struct.btConstraintSolverPoolMt::ThreadSolver", ptr %18, i64 %indvars.iv.i
  %20 = load ptr, ptr %19, align 8, !tbaa !30
  %21 = icmp eq ptr %20, null
  br i1 %21, label %26, label %22

22:                                               ; preds = %16
  %23 = load ptr, ptr %20, align 8, !tbaa !34
  %24 = getelementptr inbounds nuw i8, ptr %23, i64 8
  %25 = load ptr, ptr %24, align 8
  tail call void %25(ptr noundef nonnull align 8 dereferenceable(8) %20) #11
  %.pre.i = load i32, ptr %2, align 4, !tbaa !13
  br label %26

26:                                               ; preds = %22, %16
  %27 = phi i32 [ %.pre.i, %22 ], [ %17, %16 ]
  store ptr null, ptr %19, align 8, !tbaa !30
  %indvars.iv.next.i = add nuw nsw i64 %indvars.iv.i, 1
  %28 = sext i32 %27 to i64
  %29 = icmp slt i64 %indvars.iv.next.i, %28
  br i1 %29, label %16, label %._crit_edge.i, !llvm.loop !45

_ZN24btConstraintSolverPoolMtD2Ev.exit:           ; preds = %._crit_edge.i, %8, %12
  tail call void @_ZdlPvm(ptr noundef nonnull %0, i64 noundef 48) #13
  ret void
}